; Function Attrs: nounwind uwtable
define internal noundef i32 @file_disconnect(ptr noundef readonly captures(none) %0, ptr readnone captures(none) %1, i1 zeroext %2) #0 {
  %4 = getelementptr inbounds nuw i8, ptr %0, i64 432
  %5 = load ptr, ptr %4, align 8, !tbaa !8
  %.not.i = icmp eq ptr %5, null
  br i1 %.not.i, label %file_done.exit, label %6

6:                                                ; preds = %3
  %7 = load ptr, ptr @Curl_cfree, align 8, !tbaa !4
  %8 = getelementptr inbounds nuw i8, ptr %5, i64 8
  %9 = load ptr, ptr %8, align 8, !tbaa !108
  tail call void %7(ptr noundef %9) #8
  %10 = getelementptr inbounds nuw i8, ptr %5, i64 16
  tail call void @llvm.memset.p0.i64(ptr noundef nonnull align 8 dereferenceable(16) %5, i8 0, i64 16, i1 false)
  %11 = load i32, ptr %10, align 8, !tbaa !91
  %.not9.i = icmp eq i32 %11, -1
  br i1 %.not9.i, label %14, label %12

12:                                               ; preds = %6
  %13 = tail call i32 @close(i32 noundef %11) #8
  br label %14

14:                                               ; preds = %12, %6
  store i32 -1, ptr %10, align 8, !tbaa !91
  br label %file_done.exit

file_done.exit:                                   ; preds = %3, %14
  ret i32 0
}